target datalayout = "e-m:e-p270:32:32-p271:32:32-p272:64:64-i64:64-i128:128-f80:128-n8:16:32:64-S128"
target triple = "x86_64-pc-linux-gnu"

%struct.__va_list_tag = type { i32, i32, ptr, ptr }
%struct.CRestriction = type { i32, i32, %union.anon.1 }
%union.anon.1 = type { ptr }

@hf_mswsp_crestrictarray_count = internal global i32 0, align 4
@hf_mswsp_crestrictarray_present = internal global i32 0, align 4
@ett_CRestrictionArray = internal global i32 0, align 4
@.str.1253 = private unnamed_addr constant [27 x i8] c"paddingCRestrictionPresent\00", align 1
@.str.1254 = private unnamed_addr constant [16 x i8] c"Restriction[%d]\00", align 1

; Function Attrs: null_pointer_is_valid sspstrong uwtable
define internal i32 @parse_CRestrictionArray(ptr noundef %0, ptr noundef %1, i32 noundef %2, ptr noundef %3, ptr noundef %4, ptr noundef %5, ...) #0 {
  %7 = alloca ptr, align 8
  %8 = alloca ptr, align 8
  %9 = alloca i32, align 4
  %10 = alloca ptr, align 8
  %11 = alloca ptr, align 8
  %12 = alloca ptr, align 8
  %13 = alloca i8, align 1
  %14 = alloca i8, align 1
  %15 = alloca ptr, align 8
  %16 = alloca ptr, align 8
  %17 = alloca ptr, align 8
  %18 = alloca [1 x %struct.__va_list_tag], align 16
  %19 = alloca i32, align 4
  %20 = alloca %struct.CRestriction, align 8
  store ptr %0, ptr %7, align 8
  store ptr %1, ptr %8, align 8
  store i32 %2, ptr %9, align 4
  store ptr %3, ptr %10, align 8
  store ptr %4, ptr %11, align 8
  store ptr %5, ptr %12, align 8
  call void @llvm.lifetime.start.p0(i64 1, ptr %13) #11
  call void @llvm.lifetime.start.p0(i64 1, ptr %14) #11
  call void @llvm.lifetime.start.p0(i64 8, ptr %15) #11
  call void @llvm.lifetime.start.p0(i64 8, ptr %16) #11
  call void @llvm.lifetime.start.p0(i64 8, ptr %17) #11
  call void @llvm.lifetime.start.p0(i64 24, ptr %18) #11
  %21 = getelementptr inbounds [1 x %struct.__va_list_tag], ptr %18, i64 0, i64 0
  call void @llvm.va_start.p0(ptr %21)
  %22 = call ptr @wmem_packet_scope()
  %23 = load ptr, ptr %12, align 8
  %24 = getelementptr inbounds [1 x %struct.__va_list_tag], ptr %18, i64 0, i64 0
  %25 = call noalias ptr @wmem_strdup_vprintf(ptr noundef %22, ptr noundef %23, ptr noundef %24)
  store ptr %25, ptr %17, align 8
  %26 = getelementptr inbounds [1 x %struct.__va_list_tag], ptr %18, i64 0, i64 0
  call void @llvm.va_end.p0(ptr %26)
  %27 = load ptr, ptr %10, align 8
  %28 = load ptr, ptr %7, align 8
  %29 = load i32, ptr %9, align 4
  %30 = load i32, ptr @ett_CRestrictionArray, align 4
  %31 = load ptr, ptr %17, align 8
  %32 = call ptr @proto_tree_add_subtree(ptr noundef %27, ptr noundef %28, i32 noundef %29, i32 noundef 0, i32 noundef %30, ptr noundef %16, ptr noundef %31)
  store ptr %32, ptr %15, align 8
  %33 = load ptr, ptr %15, align 8
  store ptr %33, ptr %11, align 8
  %34 = load ptr, ptr %7, align 8
  %35 = load i32, ptr %9, align 4
  %36 = call zeroext i8 @tvb_get_uint8(ptr noundef %34, i32 noundef %35)
  store i8 %36, ptr %14, align 1
  %37 = load ptr, ptr %15, align 8
  %38 = load i32, ptr @hf_mswsp_crestrictarray_count, align 4
  %39 = load ptr, ptr %7, align 8
  %40 = load i32, ptr %9, align 4
  %41 = load i8, ptr %14, align 1
  %42 = zext i8 %41 to i32
  %43 = call ptr @proto_tree_add_uint(ptr noundef %37, i32 noundef %38, ptr noundef %39, i32 noundef %40, i32 noundef 1, i32 noundef %42)
  %44 = load i32, ptr %9, align 4
  %45 = add i32 %44, 1
  store i32 %45, ptr %9, align 4
  %46 = load ptr, ptr %7, align 8
  %47 = load i32, ptr %9, align 4
  %48 = call zeroext i8 @tvb_get_uint8(ptr noundef %46, i32 noundef %47)
  store i8 %48, ptr %13, align 1
  %49 = load ptr, ptr %15, align 8
  %50 = load i32, ptr @hf_mswsp_crestrictarray_present, align 4
  %51 = load ptr, ptr %7, align 8
  %52 = load i32, ptr %9, align 4
  %53 = load i8, ptr %13, align 1
  %54 = zext i8 %53 to i32
  %55 = call ptr @proto_tree_add_uint(ptr noundef %49, i32 noundef %50, ptr noundef %51, i32 noundef %52, i32 noundef 1, i32 noundef %54)
  %56 = load i32, ptr %9, align 4
  %57 = add i32 %56, 1
  store i32 %57, ptr %9, align 4
  %58 = load i8, ptr %13, align 1
  %59 = icmp ne i8 %58, 0
  br i1 %59, label %60, label %82

60:                                               ; preds = %6
  call void @llvm.lifetime.start.p0(i64 4, ptr %19) #11
  %61 = load ptr, ptr %7, align 8
  %62 = load i32, ptr %9, align 4
  %63 = load ptr, ptr %11, align 8
  %64 = call i32 (ptr, i32, i32, ptr, ptr, ...) @parse_padding(ptr noundef %61, i32 noundef %62, i32 noundef 4, ptr noundef %63, ptr noundef @.str.1253)
  store i32 %64, ptr %9, align 4
  store i32 0, ptr %19, align 4
  br label %65

65:                                               ; preds = %78, %60
  %66 = load i32, ptr %19, align 4
  %67 = load i8, ptr %14, align 1
  %68 = zext i8 %67 to i32
  %69 = icmp ult i32 %66, %68
  br i1 %69, label %70, label %81

70:                                               ; preds = %65
  call void @llvm.lifetime.start.p0(i64 16, ptr %20) #11
  %71 = load ptr, ptr %7, align 8
  %72 = load ptr, ptr %8, align 8
  %73 = load i32, ptr %9, align 4
  %74 = load ptr, ptr %15, align 8
  %75 = load ptr, ptr %11, align 8
  %76 = load i32, ptr %19, align 4
  %77 = call i32 (ptr, ptr, i32, ptr, ptr, ptr, ptr, ...) @parse_CRestriction(ptr noundef %71, ptr noundef %72, i32 noundef %73, ptr noundef %74, ptr noundef %75, ptr noundef %20, ptr noundef @.str.1254, i32 noundef %76)
  store i32 %77, ptr %9, align 4
  call void @llvm.lifetime.end.p0(i64 16, ptr %20) #11
  br label %78

78:                                               ; preds = %70
  %79 = load i32, ptr %19, align 4
  %80 = add i32 %79, 1
  store i32 %80, ptr %19, align 4
  br label %65, !llvm.loop !21

81:                                               ; preds = %65
  call void @llvm.lifetime.end.p0(i64 4, ptr %19) #11
  br label %82

82:                                               ; preds = %81, %6
  %83 = load ptr, ptr %16, align 8
  %84 = load ptr, ptr %7, align 8
  %85 = load i32, ptr %9, align 4
  call void @proto_item_set_end(ptr noundef %83, ptr noundef %84, i32 noundef %85)
  %86 = load i32, ptr %9, align 4
  call void @llvm.lifetime.end.p0(i64 24, ptr %18) #11
  call void @llvm.lifetime.end.p0(i64 8, ptr %17) #11
  call void @llvm.lifetime.end.p0(i64 8, ptr %16) #11
  call void @llvm.lifetime.end.p0(i64 8, ptr %15) #11
  call void @llvm.lifetime.end.p0(i64 1, ptr %14) #11
  call void @llvm.lifetime.end.p0(i64 1, ptr %13) #11
  ret i32 %86
}