; Function Attrs: null_pointer_is_valid sspstrong uwtable
define internal noundef i32 @parse_CRestrictionArray(ptr noundef %0, ptr noundef %1, i32 noundef %2, ptr noundef %3, ptr readnone captures(none) %4, ptr readnone captures(none) %5, ...) unnamed_addr #0 {
  %7 = alloca ptr, align 8
  %8 = alloca [1 x %struct.__va_list_tag], align 16
  %9 = alloca %struct.CRestriction, align 8
  call void @llvm.lifetime.start.p0(i64 8, ptr nonnull %7) #11
  call void @llvm.lifetime.start.p0(i64 24, ptr nonnull %8) #11
  call void @llvm.va_start.p0(ptr nonnull %8)
  %10 = call ptr @wmem_packet_scope()
  %11 = call noalias ptr @wmem_strdup_vprintf(ptr noundef %10, ptr noundef nonnull @.str.1241, ptr noundef nonnull %8)
  call void @llvm.va_end.p0(ptr nonnull %8)
  %12 = load i32, ptr @ett_CRestrictionArray, align 4
  %13 = call ptr @proto_tree_add_subtree(ptr noundef %3, ptr noundef %0, i32 noundef %2, i32 noundef 0, i32 noundef %12, ptr noundef nonnull %7, ptr noundef %11)
  %14 = call zeroext i8 @tvb_get_uint8(ptr noundef %0, i32 noundef %2)
  %15 = load i32, ptr @hf_mswsp_crestrictarray_count, align 4
  %16 = zext i8 %14 to i32
  %17 = call ptr @proto_tree_add_uint(ptr noundef %13, i32 noundef %15, ptr noundef %0, i32 noundef %2, i32 noundef 1, i32 noundef %16)
  %18 = add i32 %2, 1
  %19 = call zeroext i8 @tvb_get_uint8(ptr noundef %0, i32 noundef %18)
  %20 = load i32, ptr @hf_mswsp_crestrictarray_present, align 4
  %21 = zext i8 %19 to i32
  %22 = call ptr @proto_tree_add_uint(ptr noundef %13, i32 noundef %20, ptr noundef %0, i32 noundef %18, i32 noundef 1, i32 noundef %21)
  %23 = add i32 %2, 2
  %.not = icmp eq i8 %19, 0
  br i1 %.not, label %.loopexit, label %24

24:                                               ; preds = %6
  %25 = call i32 (ptr, i32, i32, ptr, ptr, ...) @parse_padding(ptr noundef %0, i32 noundef %23, i32 noundef 4, ptr noundef %13, ptr noundef nonnull @.str.1253)
  %.not38 = icmp eq i8 %14, 0
  br i1 %.not38, label %.loopexit, label %.lr.ph

.lr.ph:                                           ; preds = %24, %.lr.ph
  %.037 = phi i32 [ %27, %.lr.ph ], [ 0, %24 ]
  %.136 = phi i32 [ %26, %.lr.ph ], [ %25, %24 ]
  call void @llvm.lifetime.start.p0(i64 16, ptr nonnull %9) #11
  %26 = call i32 (ptr, ptr, i32, ptr, ptr, ptr, ptr, ...) @parse_CRestriction(ptr noundef %0, ptr noundef %1, i32 noundef %.136, ptr noundef %13, ptr noundef %13, ptr noundef nonnull %9, ptr noundef nonnull @.str.1254, i32 noundef %.037)
  call void @llvm.lifetime.end.p0(i64 16, ptr nonnull %9) #11
  %27 = add nuw nsw i32 %.037, 1
  %exitcond.not = icmp eq i32 %27, %16
  br i1 %exitcond.not, label %.loopexit, label %.lr.ph, !llvm.loop !22

.loopexit:                                        ; preds = %.lr.ph, %24, %6
  %.035 = phi i32 [ %23, %6 ], [ %25, %24 ], [ %26, %.lr.ph ]
  %28 = load ptr, ptr %7, align 8
  call void @proto_item_set_end(ptr noundef %28, ptr noundef %0, i32 noundef %.035)
  call void @llvm.lifetime.end.p0(i64 24, ptr nonnull %8) #11
  call void @llvm.lifetime.end.p0(i64 8, ptr nonnull %7) #11
  ret i32 %.035
}